; Function Attrs: nounwind uwtable
define hidden void @mbedtls_mpi_free(ptr noundef %0) local_unnamed_addr #0 {
  %2 = icmp eq ptr %0, null
  br i1 %2, label %13, label %3

3:                                                ; preds = %1
  %4 = load ptr, ptr %0, align 8, !tbaa !12
  %.not = icmp eq ptr %4, null
  br i1 %.not, label %10, label %5

5:                                                ; preds = %3
  %6 = getelementptr inbounds nuw i8, ptr %0, i64 10
  %7 = load i16, ptr %6, align 2, !tbaa !3
  %8 = zext i16 %7 to i64
  %9 = shl nuw nsw i64 %8, 3
  tail call void @mbedtls_zeroize_and_free(ptr noundef nonnull %4, i64 noundef %9) #16
  br label %10

10:                                               ; preds = %5, %3
  %11 = getelementptr inbounds nuw i8, ptr %0, i64 8
  store i16 1, ptr %11, align 8, !tbaa !10
  %12 = getelementptr inbounds nuw i8, ptr %0, i64 10
  store i16 0, ptr %12, align 2, !tbaa !3
  store ptr null, ptr %0, align 8, !tbaa !12
  br label %13

13:                                               ; preds = %1, %10
  ret void
}